target datalayout = "e-m:e-p270:32:32-p271:32:32-p272:64:64-i64:64-i128:128-f80:128-n8:16:32:64-S128"
target triple = "x86_64-pc-linux-gnu"

%struct.AVRational = type { i32, i32 }
%struct.AVChannelLayout = type { i32, i32, %union.anon, ptr }
%union.anon = type { i64 }
%struct.AVCodecContext = type { ptr, i32, i32, ptr, i32, i32, ptr, ptr, ptr, i64, i32, i32, ptr, i32, %struct.AVRational, %struct.AVRational, %struct.AVRational, i32, i32, i32, i32, i32, %struct.AVRational, i32, i32, i32, i32, i32, i32, i32, i32, i32, i32, i32, ptr, ptr, i32, float, float, float, float, float, float, float, float, float, i32, i32, i32, i32, i32, i32, i32, i32, i32, i32, i32, i32, ptr, ptr, ptr, i32, i32, i32, i32, i32, i32, i32, i32, i32, i32, %struct.AVChannelLayout, i32, i32, i32, i32, i32, i32, i32, i32, ptr, i32, i32, i32, float, float, i32, i32, i32, i32, i32, ptr, i64, i64, float, float, i32, i32, ptr, ptr, i32, i32, i32, i32, i32, ptr, ptr, ptr, ptr, i32, i32, [8 x i64], i32, i32, i32, i32, i32, i32, i32, ptr, ptr, i32, i32, i32, i32, i32, i32, i32, i32, i32, i32, ptr, ptr, i32, i32, ptr, ptr, ptr, ptr, i32, i32, i64, i32, i32, i64, ptr, i64, ptr, i32, ptr, i32 }
%struct.AVFrameSideData = type { i32, ptr, i64, ptr, ptr }

; Function Attrs: inlinehint nounwind uwtable
define internal ptr @av_frame_side_data_get(ptr noundef %0, i32 noundef %1, i32 noundef %2) #6 {
  %4 = alloca ptr, align 8
  %5 = alloca i32, align 4
  %6 = alloca i32, align 4
  store ptr %0, ptr %4, align 8, !tbaa !86
  store i32 %1, ptr %5, align 4, !tbaa !13
  store i32 %2, ptr %6, align 4, !tbaa !13
  %7 = load ptr, ptr %4, align 8, !tbaa !86
  %8 = load i32, ptr %5, align 4, !tbaa !13
  %9 = load i32, ptr %6, align 4, !tbaa !13
  %10 = call ptr @av_frame_side_data_get_c(ptr noundef %7, i32 noundef %8, i32 noundef %9)
  ret ptr %10
}

; Function Attrs: nounwind uwtable
define i32 @ff_dovi_configure(ptr noundef %0, ptr noundef %1) #0 {
  %3 = alloca i32, align 4
  %4 = alloca ptr, align 8
  %5 = alloca ptr, align 8
  %6 = alloca i32, align 4
  %7 = alloca ptr, align 8
  %8 = alloca ptr, align 8
  %9 = alloca ptr, align 8
  %10 = alloca i32, align 4
  store ptr %0, ptr %4, align 8, !tbaa !4
  store ptr %1, ptr %5, align 8, !tbaa !63
  call void @llvm.lifetime.start.p0(i64 4, ptr %6) #11
  call void @llvm.lifetime.start.p0(i64 8, ptr %7) #11
  call void @llvm.lifetime.start.p0(i64 8, ptr %8) #11
  store ptr null, ptr %8, align 8, !tbaa !11
  call void @llvm.lifetime.start.p0(i64 8, ptr %9) #11
  %11 = call ptr @avcodec_parameters_alloc()
  store ptr %11, ptr %9, align 8, !tbaa !9
  %12 = load ptr, ptr %9, align 8, !tbaa !9
  %13 = icmp ne ptr %12, null
  br i1 %13, label %15, label %14

14:                                               ; preds = %2
  store i32 -12, ptr %3, align 4
  store i32 1, ptr %10, align 4
  br label %53

15:                                               ; preds = %2
  %16 = load ptr, ptr %9, align 8, !tbaa !9
  %17 = load ptr, ptr %5, align 8, !tbaa !63
  %18 = call i32 @avcodec_parameters_from_context(ptr noundef %16, ptr noundef %17)
  store i32 %18, ptr %6, align 4, !tbaa !13
  %19 = load i32, ptr %6, align 4, !tbaa !13
  %20 = icmp slt i32 %19, 0
  br i1 %20, label %21, label %22

21:                                               ; preds = %15
  br label %51

22:                                               ; preds = %15
  %23 = load ptr, ptr %5, align 8, !tbaa !63
  %24 = getelementptr inbounds nuw %struct.AVCodecContext, ptr %23, i32 0, i32 149
  %25 = load ptr, ptr %24, align 8, !tbaa !65
  %26 = load ptr, ptr %5, align 8, !tbaa !63
  %27 = getelementptr inbounds nuw %struct.AVCodecContext, ptr %26, i32 0, i32 150
  %28 = load i32, ptr %27, align 8, !tbaa !79
  %29 = call ptr @av_frame_side_data_get(ptr noundef %25, i32 noundef %28, i32 noundef 24)
  store ptr %29, ptr %7, align 8, !tbaa !80
  %30 = load ptr, ptr %7, align 8, !tbaa !80
  %31 = icmp ne ptr %30, null
  br i1 %31, label %32, label %36

32:                                               ; preds = %22
  %33 = load ptr, ptr %7, align 8, !tbaa !80
  %34 = getelementptr inbounds nuw %struct.AVFrameSideData, ptr %33, i32 0, i32 1
  %35 = load ptr, ptr %34, align 8, !tbaa !82
  store ptr %35, ptr %8, align 8, !tbaa !11
  br label %36

36:                                               ; preds = %32, %22
  %37 = load ptr, ptr %4, align 8, !tbaa !4
  %38 = load ptr, ptr %9, align 8, !tbaa !9
  %39 = load ptr, ptr %8, align 8, !tbaa !11
  %40 = load ptr, ptr %5, align 8, !tbaa !63
  %41 = getelementptr inbounds nuw %struct.AVCodecContext, ptr %40, i32 0, i32 101
  %42 = load i32, ptr %41, align 4, !tbaa !85
  %43 = call i32 @ff_dovi_configure_ext(ptr noundef %37, ptr noundef %38, ptr noundef %39, i32 noundef 0, i32 noundef %42)
  store i32 %43, ptr %6, align 4, !tbaa !13
  %44 = load i32, ptr %6, align 4, !tbaa !13
  %45 = icmp slt i32 %44, 0
  br i1 %45, label %46, label %47

46:                                               ; preds = %36
  br label %51

47:                                               ; preds = %36
  %48 = load ptr, ptr %5, align 8, !tbaa !63
  %49 = load ptr, ptr %9, align 8, !tbaa !9
  %50 = call i32 @avcodec_parameters_to_context(ptr noundef %48, ptr noundef %49)
  store i32 %50, ptr %6, align 4, !tbaa !13
  br label %51

51:                                               ; preds = %47, %46, %21
  call void @avcodec_parameters_free(ptr noundef %9)
  %52 = load i32, ptr %6, align 4, !tbaa !13
  store i32 %52, ptr %3, align 4
  store i32 1, ptr %10, align 4
  br label %53

53:                                               ; preds = %51, %14
  call void @llvm.lifetime.end.p0(i64 8, ptr %9) #11
  call void @llvm.lifetime.end.p0(i64 8, ptr %8) #11
  call void @llvm.lifetime.end.p0(i64 8, ptr %7) #11
  call void @llvm.lifetime.end.p0(i64 4, ptr %6) #11
  %54 = load i32, ptr %3, align 4
  ret i32 %54
}