; Function Attrs: nounwind uwtable
define i32 @ff_dovi_configure(ptr noundef captures(none) %0, ptr noundef %1) local_unnamed_addr #0 {
  %3 = alloca ptr, align 8
  call void @llvm.lifetime.start.p0(i64 8, ptr nonnull %3) #12
  %4 = tail call ptr @avcodec_parameters_alloc() #12
  store ptr %4, ptr %3, align 8, !tbaa !52
  %.not = icmp eq ptr %4, null
  br i1 %.not, label %25, label %5

5:                                                ; preds = %2
  %6 = tail call i32 @avcodec_parameters_from_context(ptr noundef nonnull %4, ptr noundef %1) #12
  %7 = icmp slt i32 %6, 0
  br i1 %7, label %24, label %8

8:                                                ; preds = %5
  %9 = getelementptr inbounds nuw i8, ptr %1, i64 848
  %10 = load ptr, ptr %9, align 8, !tbaa !54
  %11 = getelementptr inbounds nuw i8, ptr %1, i64 856
  %12 = load i32, ptr %11, align 8, !tbaa !68
  %13 = tail call ptr @av_frame_side_data_get_c(ptr noundef %10, i32 noundef %12, i32 noundef 24) #12
  %.not18 = icmp eq ptr %13, null
  br i1 %.not18, label %17, label %14

14:                                               ; preds = %8
  %15 = getelementptr inbounds nuw i8, ptr %13, i64 8
  %16 = load ptr, ptr %15, align 8, !tbaa !69
  br label %17

17:                                               ; preds = %14, %8
  %.0 = phi ptr [ %16, %14 ], [ null, %8 ]
  %18 = getelementptr inbounds nuw i8, ptr %1, i64 516
  %19 = load i32, ptr %18, align 4, !tbaa !72
  %20 = tail call i32 @ff_dovi_configure_ext(ptr noundef %0, ptr noundef nonnull %4, ptr noundef %.0, i32 noundef 0, i32 noundef %19)
  %21 = icmp slt i32 %20, 0
  br i1 %21, label %24, label %22

22:                                               ; preds = %17
  %23 = tail call i32 @avcodec_parameters_to_context(ptr noundef nonnull %1, ptr noundef nonnull %4) #12
  br label %24

24:                                               ; preds = %17, %5, %22
  %.013 = phi i32 [ %6, %5 ], [ %20, %17 ], [ %23, %22 ]
  call void @avcodec_parameters_free(ptr noundef nonnull %3) #12
  br label %25

25:                                               ; preds = %2, %24
  %.012 = phi i32 [ %.013, %24 ], [ -12, %2 ]
  call void @llvm.lifetime.end.p0(i64 8, ptr nonnull %3) #12
  ret i32 %.012
}